target datalayout = "e-m:e-p270:32:32-p271:32:32-p272:64:64-i64:64-i128:128-f80:128-n8:16:32:64-S128"
target triple = "x86_64-pc-linux-gnu"

%"class.llvm::DebugLoc" = type { %"class.llvm::TypedTrackingMDRef" }
%"class.llvm::TypedTrackingMDRef" = type { %"class.llvm::TrackingMDRef" }
%"class.llvm::TrackingMDRef" = type { ptr }
%"class.llvm::GlobalValue" = type { %"class.llvm::Constant", ptr, i32, i32, ptr }
%"class.llvm::Constant" = type { %"class.llvm::User" }
%"class.llvm::User" = type { %"class.llvm::Value" }
%"class.llvm::Value" = type { i8, i8, i16, i32, ptr, ptr }
%"class.llvm::AttributeList" = type { ptr }
%"class.llvm::ilist_node_impl.50" = type { %"class.llvm::ilist_node_base.51" }
%"class.llvm::ilist_node_base.51" = type { %"class.llvm::ilist_detail::node_base_prevnext.52", %"class.llvm::ilist_detail::node_base_parent.53" }
%"class.llvm::ilist_detail::node_base_prevnext.52" = type { ptr, ptr }
%"class.llvm::ilist_detail::node_base_parent.53" = type { ptr }
%"class.llvm::Instruction" = type { %"class.llvm::User", %"class.llvm::ilist_node_with_parent.56", %"class.llvm::DebugLoc", i32, ptr }
%"class.llvm::ilist_node_with_parent.56" = type { %"class.llvm::ilist_node.57" }
%"class.llvm::ilist_node.57" = type { %"class.llvm::ilist_node_impl.50" }
%"class.llvm::CallBase" = type { %"class.llvm::Instruction", %"class.llvm::AttributeList", ptr }
%"class.llvm::Use" = type { ptr, ptr, ptr, ptr }

; Function Attrs: mustprogress nounwind uwtable
define linkonce_odr hidden noundef i32 @_ZNK4llvm5Value10getValueIDEv(ptr noundef nonnull align 8 dereferenceable(24) %0) #1 comdat align 2 {
  %2 = alloca ptr, align 8
  store ptr %0, ptr %2, align 8
  %3 = load ptr, ptr %2, align 8
  %4 = getelementptr inbounds nuw %"class.llvm::Value", ptr %3, i32 0, i32 0
  %5 = load i8, ptr %4, align 8
  %6 = zext i8 %5 to i32
  ret i32 %6
}

; Function Attrs: mustprogress nounwind uwtable
define linkonce_odr hidden noundef zeroext i1 @_ZN4llvm8isa_implINS_8FunctionENS_5ValueEvE4doitERKS2_(ptr noundef nonnull align 8 dereferenceable(24) %0) #1 comdat align 2 {
  %2 = alloca ptr, align 8
  store ptr %0, ptr %2, align 8
  %3 = load ptr, ptr %2, align 8
  %4 = call noundef i32 @_ZNK4llvm5Value10getValueIDEv(ptr noundef nonnull align 8 dereferenceable(24) %3)
  %5 = icmp eq i32 %4, 0
  ret i1 %5
}

; Function Attrs: mustprogress nounwind uwtable
define linkonce_odr hidden noundef zeroext i1 @_ZN4llvm11isa_impl_clINS_8FunctionEPKNS_5ValueEE4doitES4_(ptr noundef %0) #1 comdat align 2 {
  %2 = alloca ptr, align 8
  store ptr %0, ptr %2, align 8
  %3 = load ptr, ptr %2, align 8
  %4 = call noundef zeroext i1 @_ZN4llvm8isa_implINS_8FunctionENS_5ValueEvE4doitERKS2_(ptr noundef nonnull align 8 dereferenceable(24) %3)
  ret i1 %4
}

; Function Attrs: mustprogress nounwind uwtable
define linkonce_odr hidden noundef zeroext i1 @_ZN4llvm13isa_impl_wrapINS_8FunctionEPKNS_5ValueES4_E4doitERKS4_(ptr noundef nonnull align 8 dereferenceable(8) %0) #1 comdat align 2 {
  %2 = alloca ptr, align 8
  store ptr %0, ptr %2, align 8
  %3 = load ptr, ptr %2, align 8
  %4 = load ptr, ptr %3, align 8
  %5 = call noundef zeroext i1 @_ZN4llvm11isa_impl_clINS_8FunctionEPKNS_5ValueEE4doitES4_(ptr noundef %4)
  ret i1 %5
}

; Function Attrs: mustprogress nounwind uwtable
define linkonce_odr hidden noundef ptr @_ZN4llvm13simplify_typeIKPNS_5ValueEE18getSimplifiedValueERS3_(ptr noundef nonnull align 8 dereferenceable(8) %0) #1 comdat align 2 {
  %2 = alloca ptr, align 8
  store ptr %0, ptr %2, align 8
  %3 = load ptr, ptr %2, align 8
  %4 = call noundef nonnull align 8 dereferenceable(8) ptr @_ZN4llvm13simplify_typeIPNS_5ValueEE18getSimplifiedValueERS2_(ptr noundef nonnull align 8 dereferenceable(8) %3)
  %5 = load ptr, ptr %4, align 8
  ret ptr %5
}

; Function Attrs: mustprogress nounwind uwtable
define linkonce_odr hidden noundef ptr @_ZN4llvm16cast_convert_valINS_8FunctionEPNS_5ValueES3_E4doitEPKS2_(ptr noundef %0) #1 comdat align 2 {
  %2 = alloca ptr, align 8
  store ptr %0, ptr %2, align 8
  %3 = load ptr, ptr %2, align 8
  ret ptr %3
}

; Function Attrs: mustprogress nounwind uwtable
define linkonce_odr hidden noundef zeroext i1 @_ZN4llvm13isa_impl_wrapINS_8FunctionEKPNS_5ValueEPKS2_E4doitERS4_(ptr noundef nonnull align 8 dereferenceable(8) %0) #1 comdat align 2 {
  %2 = alloca ptr, align 8
  %3 = alloca ptr, align 8
  store ptr %0, ptr %2, align 8
  %4 = load ptr, ptr %2, align 8
  %5 = call noundef ptr @_ZN4llvm13simplify_typeIKPNS_5ValueEE18getSimplifiedValueERS3_(ptr noundef nonnull align 8 dereferenceable(8) %4)
  store ptr %5, ptr %3, align 8
  %6 = call noundef zeroext i1 @_ZN4llvm13isa_impl_wrapINS_8FunctionEPKNS_5ValueES4_E4doitERKS4_(ptr noundef nonnull align 8 dereferenceable(8) %3)
  ret i1 %6
}

; Function Attrs: mustprogress nounwind uwtable
define linkonce_odr hidden noundef ptr @_ZN4llvm8CastInfoINS_8FunctionEPNS_5ValueEvE6doCastERKS3_(ptr noundef nonnull align 8 dereferenceable(8) %0) #1 comdat align 2 {
  %2 = alloca ptr, align 8
  store ptr %0, ptr %2, align 8
  %3 = load ptr, ptr %2, align 8
  %4 = load ptr, ptr %3, align 8
  %5 = call noundef ptr @_ZN4llvm16cast_convert_valINS_8FunctionEPNS_5ValueES3_E4doitEPKS2_(ptr noundef %4)
  ret ptr %5
}

; Function Attrs: mustprogress nounwind uwtable
define linkonce_odr hidden noundef zeroext i1 @_ZN4llvm14CastIsPossibleINS_8FunctionEPNS_5ValueEvE10isPossibleERKS3_(ptr noundef nonnull align 8 dereferenceable(8) %0) #1 comdat align 2 {
  %2 = alloca ptr, align 8
  store ptr %0, ptr %2, align 8
  %3 = load ptr, ptr %2, align 8
  %4 = call noundef zeroext i1 @_ZN4llvm13isa_impl_wrapINS_8FunctionEKPNS_5ValueEPKS2_E4doitERS4_(ptr noundef nonnull align 8 dereferenceable(8) %3)
  ret i1 %4
}

; Function Attrs: mustprogress nounwind uwtable
define linkonce_odr hidden noundef nonnull align 8 dereferenceable(8) ptr @_ZN4llvm14ValueIsPresentIPNS_5ValueEvE11unwrapValueERS2_(ptr noundef nonnull align 8 dereferenceable(8) %0) #1 comdat align 2 {
  %2 = alloca ptr, align 8
  store ptr %0, ptr %2, align 8
  %3 = load ptr, ptr %2, align 8
  ret ptr %3
}

; Function Attrs: mustprogress nounwind uwtable
define linkonce_odr hidden noundef zeroext i1 @_ZN4llvm14ValueIsPresentIPNS_5ValueEvE9isPresentERKS2_(ptr noundef nonnull align 8 dereferenceable(8) %0) #1 comdat align 2 {
  %2 = alloca ptr, align 8
  store ptr %0, ptr %2, align 8
  %3 = load ptr, ptr %2, align 8
  %4 = load ptr, ptr %3, align 8
  %5 = icmp ne ptr %4, null
  ret i1 %5
}

; Function Attrs: mustprogress nounwind uwtable
define linkonce_odr hidden noundef nonnull align 8 dereferenceable(8) ptr @_ZN4llvm13simplify_typeIPNS_5ValueEE18getSimplifiedValueERS2_(ptr noundef nonnull align 8 dereferenceable(8) %0) #1 comdat align 2 {
  %2 = alloca ptr, align 8
  store ptr %0, ptr %2, align 8
  %3 = load ptr, ptr %2, align 8
  ret ptr %3
}

; Function Attrs: mustprogress nounwind uwtable
define linkonce_odr hidden noundef ptr @_ZN4llvm21VariadicOperandTraitsINS_8CallBaseEE6op_endEPS1_(ptr noundef %0) #1 comdat align 2 {
  %2 = alloca ptr, align 8
  store ptr %0, ptr %2, align 8
  %3 = load ptr, ptr %2, align 8
  ret ptr %3
}

; Function Attrs: mustprogress nounwind uwtable
define linkonce_odr hidden noundef ptr @_ZN4llvm8CastInfoINS_8FunctionEPNS_5ValueEvE16doCastIfPossibleERKS3_(ptr noundef nonnull align 8 dereferenceable(8) %0) #1 comdat align 2 {
  %2 = alloca ptr, align 8
  %3 = alloca ptr, align 8
  store ptr %0, ptr %3, align 8
  %4 = load ptr, ptr %3, align 8
  %5 = call noundef zeroext i1 @_ZN4llvm14CastIsPossibleINS_8FunctionEPNS_5ValueEvE10isPossibleERKS3_(ptr noundef nonnull align 8 dereferenceable(8) %4)
  br i1 %5, label %8, label %6

6:                                                ; preds = %1
  %7 = call noundef ptr @_ZN4llvm8CastInfoINS_8FunctionEPNS_5ValueEvE10castFailedEv()
  store ptr %7, ptr %2, align 8
  br label %11

8:                                                ; preds = %1
  %9 = load ptr, ptr %3, align 8
  %10 = call noundef ptr @_ZN4llvm8CastInfoINS_8FunctionEPNS_5ValueEvE6doCastERKS3_(ptr noundef nonnull align 8 dereferenceable(8) %9)
  store ptr %10, ptr %2, align 8
  br label %11

11:                                               ; preds = %8, %6
  %12 = load ptr, ptr %2, align 8
  ret ptr %12
}

; Function Attrs: mustprogress nounwind uwtable
define linkonce_odr hidden noundef nonnull align 8 dereferenceable(8) ptr @_ZN4llvm6detail11unwrapValueIPNS_5ValueEEEDcRT_(ptr noundef nonnull align 8 dereferenceable(8) %0) #1 comdat {
  %2 = alloca ptr, align 8
  store ptr %0, ptr %2, align 8
  %3 = load ptr, ptr %2, align 8
  %4 = call noundef nonnull align 8 dereferenceable(8) ptr @_ZN4llvm14ValueIsPresentIPNS_5ValueEvE11unwrapValueERS2_(ptr noundef nonnull align 8 dereferenceable(8) %3)
  ret ptr %4
}

; Function Attrs: mustprogress nounwind uwtable
define linkonce_odr hidden noundef ptr @_ZN4llvm8CastInfoINS_8FunctionEPNS_5ValueEvE10castFailedEv() #1 comdat align 2 {
  ret ptr null
}

; Function Attrs: mustprogress nounwind uwtable
define linkonce_odr hidden noundef zeroext i1 @_ZN4llvm6detail9isPresentIPNS_5ValueEEEbRKT_(ptr noundef nonnull align 8 dereferenceable(8) %0) #1 comdat {
  %2 = alloca ptr, align 8
  store ptr %0, ptr %2, align 8
  %3 = load ptr, ptr %2, align 8
  %4 = call noundef nonnull align 8 dereferenceable(8) ptr @_ZN4llvm13simplify_typeIPNS_5ValueEE18getSimplifiedValueERS2_(ptr noundef nonnull align 8 dereferenceable(8) %3)
  %5 = call noundef zeroext i1 @_ZN4llvm14ValueIsPresentIPNS_5ValueEvE9isPresentERKS2_(ptr noundef nonnull align 8 dereferenceable(8) %4)
  ret i1 %5
}

; Function Attrs: mustprogress nounwind uwtable
define linkonce_odr hidden noundef nonnull align 8 dereferenceable(32) ptr @_ZN4llvm4User6OpFromILin1ENS_8CallBaseEEERNS_3UseEPKT0_(ptr noundef %0) #1 comdat align 2 {
  %2 = alloca ptr, align 8
  store ptr %0, ptr %2, align 8
  %3 = load ptr, ptr %2, align 8
  %4 = call noundef ptr @_ZN4llvm21VariadicOperandTraitsINS_8CallBaseEE6op_endEPS1_(ptr noundef %3)
  %5 = getelementptr inbounds %"class.llvm::Use", ptr %4, i64 -1
  ret ptr %5
}

; Function Attrs: mustprogress nounwind uwtable
define linkonce_odr noundef ptr @_ZN4llvm19dyn_cast_if_presentINS_8FunctionENS_5ValueEEEDaPT0_(ptr noundef %0) #1 comdat {
  %2 = alloca ptr, align 8
  %3 = alloca ptr, align 8
  store ptr %0, ptr %3, align 8
  %4 = call noundef zeroext i1 @_ZN4llvm6detail9isPresentIPNS_5ValueEEEbRKT_(ptr noundef nonnull align 8 dereferenceable(8) %3)
  br i1 %4, label %7, label %5

5:                                                ; preds = %1
  %6 = call noundef ptr @_ZN4llvm8CastInfoINS_8FunctionEPNS_5ValueEvE10castFailedEv()
  store ptr %6, ptr %2, align 8
  br label %10

7:                                                ; preds = %1
  %8 = call noundef nonnull align 8 dereferenceable(8) ptr @_ZN4llvm6detail11unwrapValueIPNS_5ValueEEEDcRT_(ptr noundef nonnull align 8 dereferenceable(8) %3)
  %9 = call noundef ptr @_ZN4llvm8CastInfoINS_8FunctionEPNS_5ValueEvE16doCastIfPossibleERKS3_(ptr noundef nonnull align 8 dereferenceable(8) %8)
  store ptr %9, ptr %2, align 8
  br label %10

10:                                               ; preds = %7, %5
  %11 = load ptr, ptr %2, align 8
  ret ptr %11
}

; Function Attrs: mustprogress nounwind uwtable
define linkonce_odr hidden noundef ptr @_ZNK4llvm3UsecvPNS_5ValueEEv(ptr noundef nonnull align 8 dereferenceable(32) %0) #1 comdat align 2 {
  %2 = alloca ptr, align 8
  store ptr %0, ptr %2, align 8
  %3 = load ptr, ptr %2, align 8
  %4 = getelementptr inbounds nuw %"class.llvm::Use", ptr %3, i32 0, i32 0
  %5 = load ptr, ptr %4, align 8
  ret ptr %5
}

; Function Attrs: mustprogress nounwind uwtable
define linkonce_odr hidden noundef nonnull align 8 dereferenceable(32) ptr @_ZNK4llvm8CallBase2OpILin1EEERKNS_3UseEv(ptr noundef nonnull align 8 dereferenceable(88) %0) #1 comdat align 2 {
  %2 = alloca ptr, align 8
  store ptr %0, ptr %2, align 8
  %3 = load ptr, ptr %2, align 8
  %4 = call noundef nonnull align 8 dereferenceable(32) ptr @_ZN4llvm4User6OpFromILin1ENS_8CallBaseEEERNS_3UseEPKT0_(ptr noundef %3)
  ret ptr %4
}

; Function Attrs: mustprogress nounwind uwtable
define linkonce_odr hidden noundef ptr @_ZNK4llvm8CallBase15getFunctionTypeEv(ptr noundef nonnull align 8 dereferenceable(88) %0) #1 comdat align 2 {
  %2 = alloca ptr, align 8
  store ptr %0, ptr %2, align 8
  %3 = load ptr, ptr %2, align 8
  %4 = getelementptr inbounds nuw %"class.llvm::CallBase", ptr %3, i32 0, i32 2
  %5 = load ptr, ptr %4, align 8
  ret ptr %5
}

; Function Attrs: mustprogress nounwind uwtable
define linkonce_odr hidden noundef ptr @_ZNK4llvm11GlobalValue12getValueTypeEv(ptr noundef nonnull align 8 dereferenceable(48) %0) #1 comdat align 2 {
  %2 = alloca ptr, align 8
  store ptr %0, ptr %2, align 8
  %3 = load ptr, ptr %2, align 8
  %4 = getelementptr inbounds nuw %"class.llvm::GlobalValue", ptr %3, i32 0, i32 1
  %5 = load ptr, ptr %4, align 8
  ret ptr %5
}

; Function Attrs: mustprogress nounwind uwtable
define linkonce_odr noundef ptr @_ZN4llvm16dyn_cast_or_nullINS_8FunctionENS_5ValueEEEDaPT0_(ptr noundef %0) #1 comdat {
  %2 = alloca ptr, align 8
  store ptr %0, ptr %2, align 8
  %3 = load ptr, ptr %2, align 8
  %4 = call noundef ptr @_ZN4llvm19dyn_cast_if_presentINS_8FunctionENS_5ValueEEEDaPT0_(ptr noundef %3)
  ret ptr %4
}

; Function Attrs: mustprogress nounwind uwtable
define linkonce_odr hidden noundef ptr @_ZNK4llvm8CallBase16getCalledOperandEv(ptr noundef nonnull align 8 dereferenceable(88) %0) #1 comdat align 2 {
  %2 = alloca ptr, align 8
  store ptr %0, ptr %2, align 8
  %3 = load ptr, ptr %2, align 8
  %4 = call noundef nonnull align 8 dereferenceable(32) ptr @_ZNK4llvm8CallBase2OpILin1EEERKNS_3UseEv(ptr noundef nonnull align 8 dereferenceable(88) %3)
  %5 = call noundef ptr @_ZNK4llvm3UsecvPNS_5ValueEEv(ptr noundef nonnull align 8 dereferenceable(32) %4)
  ret ptr %5
}

; Function Attrs: mustprogress nounwind willreturn memory(read) uwtable
define linkonce_odr hidden noundef i32 @_ZNK4llvm8Function14getIntrinsicIDEv(ptr noundef nonnull align 8 dereferenceable(136) %0) #10 comdat align 2 {
  %2 = alloca ptr, align 8
  store ptr %0, ptr %2, align 8
  %3 = load ptr, ptr %2, align 8
  %4 = getelementptr inbounds nuw %"class.llvm::GlobalValue", ptr %3, i32 0, i32 3
  %5 = load i32, ptr %4, align 4
  ret i32 %5
}

; Function Attrs: mustprogress nounwind uwtable
define linkonce_odr hidden noundef ptr @_ZNK4llvm8CallBase17getCalledFunctionEv(ptr noundef nonnull align 8 dereferenceable(88) %0) #1 comdat align 2 {
  %2 = alloca ptr, align 8
  %3 = alloca ptr, align 8
  %4 = alloca ptr, align 8
  store ptr %0, ptr %3, align 8
  %5 = load ptr, ptr %3, align 8
  %6 = call noundef ptr @_ZNK4llvm8CallBase16getCalledOperandEv(ptr noundef nonnull align 8 dereferenceable(88) %5)
  %7 = call noundef ptr @_ZN4llvm16dyn_cast_or_nullINS_8FunctionENS_5ValueEEEDaPT0_(ptr noundef %6)
  store ptr %7, ptr %4, align 8
  %8 = load ptr, ptr %4, align 8
  %9 = icmp ne ptr %8, null
  br i1 %9, label %10, label %18

10:                                               ; preds = %1
  %11 = load ptr, ptr %4, align 8
  %12 = call noundef ptr @_ZNK4llvm11GlobalValue12getValueTypeEv(ptr noundef nonnull align 8 dereferenceable(48) %11)
  %13 = call noundef ptr @_ZNK4llvm8CallBase15getFunctionTypeEv(ptr noundef nonnull align 8 dereferenceable(88) %5)
  %14 = icmp eq ptr %12, %13
  br i1 %14, label %15, label %17

15:                                               ; preds = %10
  %16 = load ptr, ptr %4, align 8
  store ptr %16, ptr %2, align 8
  br label %19

17:                                               ; preds = %10
  br label %18

18:                                               ; preds = %17, %1
  store ptr null, ptr %2, align 8
  br label %19

19:                                               ; preds = %18, %15
  %20 = load ptr, ptr %2, align 8
  ret ptr %20
}

; Function Attrs: mustprogress nounwind uwtable
define linkonce_odr hidden noundef i32 @_ZNK4llvm13IntrinsicInst14getIntrinsicIDEv(ptr noundef nonnull align 8 dereferenceable(88) %0) #1 comdat align 2 {
  %2 = alloca ptr, align 8
  store ptr %0, ptr %2, align 8
  %3 = load ptr, ptr %2, align 8
  %4 = call noundef ptr @_ZNK4llvm8CallBase17getCalledFunctionEv(ptr noundef nonnull align 8 dereferenceable(88) %3)
  %5 = call noundef i32 @_ZNK4llvm8Function14getIntrinsicIDEv(ptr noundef nonnull align 8 dereferenceable(136) %4) #17
  ret i32 %5
}

; Function Attrs: mustprogress nounwind uwtable
define linkonce_odr hidden noundef zeroext i1 @_ZN4llvm14DbgDeclareInst7classofEPKNS_13IntrinsicInstE(ptr noundef %0) #1 comdat align 2 {
  %2 = alloca ptr, align 8
  store ptr %0, ptr %2, align 8
  %3 = load ptr, ptr %2, align 8
  %4 = call noundef i32 @_ZNK4llvm13IntrinsicInst14getIntrinsicIDEv(ptr noundef nonnull align 8 dereferenceable(88) %3)
  %5 = icmp eq i32 %4, 67
  ret i1 %5
}

; Function Attrs: mustprogress nounwind uwtable
define linkonce_odr hidden noundef zeroext i1 @_ZN4llvm8isa_implINS_14DbgDeclareInstENS_20DbgVariableIntrinsicEvE4doitERKS2_(ptr noundef nonnull align 8 dereferenceable(88) %0) #1 comdat align 2 {
  %2 = alloca ptr, align 8
  store ptr %0, ptr %2, align 8
  %3 = load ptr, ptr %2, align 8
  %4 = call noundef zeroext i1 @_ZN4llvm14DbgDeclareInst7classofEPKNS_13IntrinsicInstE(ptr noundef %3)
  ret i1 %4
}

; Function Attrs: mustprogress nounwind uwtable
define linkonce_odr hidden noundef zeroext i1 @_ZN4llvm11isa_impl_clINS_14DbgDeclareInstEPKNS_20DbgVariableIntrinsicEE4doitES4_(ptr noundef %0) #1 comdat align 2 {
  %2 = alloca ptr, align 8
  store ptr %0, ptr %2, align 8
  %3 = load ptr, ptr %2, align 8
  %4 = call noundef zeroext i1 @_ZN4llvm8isa_implINS_14DbgDeclareInstENS_20DbgVariableIntrinsicEvE4doitERKS2_(ptr noundef nonnull align 8 dereferenceable(88) %3)
  ret i1 %4
}

; Function Attrs: mustprogress nounwind uwtable
define linkonce_odr hidden noundef nonnull align 8 dereferenceable(8) ptr @_ZN4llvm13simplify_typeIPNS_20DbgVariableIntrinsicEE18getSimplifiedValueERS2_(ptr noundef nonnull align 8 dereferenceable(8) %0) #1 comdat align 2 {
  %2 = alloca ptr, align 8
  store ptr %0, ptr %2, align 8
  %3 = load ptr, ptr %2, align 8
  ret ptr %3
}

; Function Attrs: mustprogress nounwind uwtable
define linkonce_odr hidden noundef zeroext i1 @_ZN4llvm13isa_impl_wrapINS_14DbgDeclareInstEPKNS_20DbgVariableIntrinsicES4_E4doitERKS4_(ptr noundef nonnull align 8 dereferenceable(8) %0) #1 comdat align 2 {
  %2 = alloca ptr, align 8
  store ptr %0, ptr %2, align 8
  %3 = load ptr, ptr %2, align 8
  %4 = load ptr, ptr %3, align 8
  %5 = call noundef zeroext i1 @_ZN4llvm11isa_impl_clINS_14DbgDeclareInstEPKNS_20DbgVariableIntrinsicEE4doitES4_(ptr noundef %4)
  ret i1 %5
}

; Function Attrs: mustprogress nounwind uwtable
define linkonce_odr hidden noundef ptr @_ZN4llvm13simplify_typeIKPNS_20DbgVariableIntrinsicEE18getSimplifiedValueERS3_(ptr noundef nonnull align 8 dereferenceable(8) %0) #1 comdat align 2 {
  %2 = alloca ptr, align 8
  store ptr %0, ptr %2, align 8
  %3 = load ptr, ptr %2, align 8
  %4 = call noundef nonnull align 8 dereferenceable(8) ptr @_ZN4llvm13simplify_typeIPNS_20DbgVariableIntrinsicEE18getSimplifiedValueERS2_(ptr noundef nonnull align 8 dereferenceable(8) %3)
  %5 = load ptr, ptr %4, align 8
  ret ptr %5
}

; Function Attrs: mustprogress nounwind uwtable
define linkonce_odr hidden noundef ptr @_ZN4llvm16cast_convert_valINS_14DbgDeclareInstEPNS_20DbgVariableIntrinsicES3_E4doitEPKS2_(ptr noundef %0) #1 comdat align 2 {
  %2 = alloca ptr, align 8
  store ptr %0, ptr %2, align 8
  %3 = load ptr, ptr %2, align 8
  ret ptr %3
}

; Function Attrs: mustprogress nounwind uwtable
define linkonce_odr hidden noundef zeroext i1 @_ZN4llvm13isa_impl_wrapINS_14DbgDeclareInstEKPNS_20DbgVariableIntrinsicEPKS2_E4doitERS4_(ptr noundef nonnull align 8 dereferenceable(8) %0) #1 comdat align 2 {
  %2 = alloca ptr, align 8
  %3 = alloca ptr, align 8
  store ptr %0, ptr %2, align 8
  %4 = load ptr, ptr %2, align 8
  %5 = call noundef ptr @_ZN4llvm13simplify_typeIKPNS_20DbgVariableIntrinsicEE18getSimplifiedValueERS3_(ptr noundef nonnull align 8 dereferenceable(8) %4)
  store ptr %5, ptr %3, align 8
  %6 = call noundef zeroext i1 @_ZN4llvm13isa_impl_wrapINS_14DbgDeclareInstEPKNS_20DbgVariableIntrinsicES4_E4doitERKS4_(ptr noundef nonnull align 8 dereferenceable(8) %3)
  ret i1 %6
}

; Function Attrs: mustprogress nounwind uwtable
define linkonce_odr hidden noundef ptr @_ZN4llvm8CastInfoINS_14DbgDeclareInstEPNS_20DbgVariableIntrinsicEvE6doCastERKS3_(ptr noundef nonnull align 8 dereferenceable(8) %0) #1 comdat align 2 {
  %2 = alloca ptr, align 8
  store ptr %0, ptr %2, align 8
  %3 = load ptr, ptr %2, align 8
  %4 = load ptr, ptr %3, align 8
  %5 = call noundef ptr @_ZN4llvm16cast_convert_valINS_14DbgDeclareInstEPNS_20DbgVariableIntrinsicES3_E4doitEPKS2_(ptr noundef %4)
  ret ptr %5
}

; Function Attrs: mustprogress nounwind uwtable
define linkonce_odr hidden noundef ptr @_ZN4llvm8CastInfoINS_14DbgDeclareInstEPNS_20DbgVariableIntrinsicEvE10castFailedEv() #1 comdat align 2 {
  ret ptr null
}

; Function Attrs: mustprogress nounwind uwtable
define linkonce_odr hidden noundef zeroext i1 @_ZN4llvm14CastIsPossibleINS_14DbgDeclareInstEPNS_20DbgVariableIntrinsicEvE10isPossibleERKS3_(ptr noundef nonnull align 8 dereferenceable(8) %0) #1 comdat align 2 {
  %2 = alloca ptr, align 8
  store ptr %0, ptr %2, align 8
  %3 = load ptr, ptr %2, align 8
  %4 = call noundef zeroext i1 @_ZN4llvm13isa_impl_wrapINS_14DbgDeclareInstEKPNS_20DbgVariableIntrinsicEPKS2_E4doitERS4_(ptr noundef nonnull align 8 dereferenceable(8) %3)
  ret i1 %4
}

; Function Attrs: mustprogress nounwind uwtable
define linkonce_odr hidden noundef ptr @_ZN4llvm8CastInfoINS_14DbgDeclareInstEPNS_20DbgVariableIntrinsicEvE16doCastIfPossibleERKS3_(ptr noundef nonnull align 8 dereferenceable(8) %0) #1 comdat align 2 {
  %2 = alloca ptr, align 8
  %3 = alloca ptr, align 8
  store ptr %0, ptr %3, align 8
  %4 = load ptr, ptr %3, align 8
  %5 = call noundef zeroext i1 @_ZN4llvm14CastIsPossibleINS_14DbgDeclareInstEPNS_20DbgVariableIntrinsicEvE10isPossibleERKS3_(ptr noundef nonnull align 8 dereferenceable(8) %4)
  br i1 %5, label %8, label %6

6:                                                ; preds = %1
  %7 = call noundef ptr @_ZN4llvm8CastInfoINS_14DbgDeclareInstEPNS_20DbgVariableIntrinsicEvE10castFailedEv()
  store ptr %7, ptr %2, align 8
  br label %11

8:                                                ; preds = %1
  %9 = load ptr, ptr %3, align 8
  %10 = call noundef ptr @_ZN4llvm8CastInfoINS_14DbgDeclareInstEPNS_20DbgVariableIntrinsicEvE6doCastERKS3_(ptr noundef nonnull align 8 dereferenceable(8) %9)
  store ptr %10, ptr %2, align 8
  br label %11

11:                                               ; preds = %8, %6
  %12 = load ptr, ptr %2, align 8
  ret ptr %12
}

; Function Attrs: mustprogress nounwind uwtable
define linkonce_odr hidden noundef ptr @_ZN4llvm8dyn_castINS_14DbgDeclareInstENS_20DbgVariableIntrinsicEEEDcPT0_(ptr noundef %0) #1 comdat {
  %2 = alloca ptr, align 8
  store ptr %0, ptr %2, align 8
  %3 = call noundef ptr @_ZN4llvm8CastInfoINS_14DbgDeclareInstEPNS_20DbgVariableIntrinsicEvE16doCastIfPossibleERKS3_(ptr noundef nonnull align 8 dereferenceable(8) %2)
  ret ptr %3
}

; Function Attrs: mustprogress nounwind uwtable
define dso_local noundef ptr @_Z19DynCastToDbgDeclarePN4llvm20DbgVariableIntrinsicE(ptr noundef %0) #1 {
  %2 = alloca ptr, align 8
  store ptr %0, ptr %2, align 8
  %3 = load ptr, ptr %2, align 8
  %4 = call noundef ptr @_ZN4llvm8dyn_castINS_14DbgDeclareInstENS_20DbgVariableIntrinsicEEEDcPT0_(ptr noundef %3)
  ret ptr %4
}