; Function Attrs: mustprogress nofree norecurse nosync nounwind willreturn memory(read, inaccessiblemem: write) uwtable
define dso_local noundef ptr @_Z19DynCastToDbgDeclarePN4llvm20DbgVariableIntrinsicE(ptr noundef readonly %0) local_unnamed_addr #5 {
  %2 = getelementptr inbounds i8, ptr %0, i64 -32
  %3 = load ptr, ptr %2, align 8, !nonnull !27, !noundef !27
  %4 = load i8, ptr %3, align 8
  %5 = icmp eq i8 %4, 0
  tail call void @llvm.assume(i1 %5)
  %6 = getelementptr inbounds nuw i8, ptr %3, i64 24
  %7 = load ptr, ptr %6, align 8
  %8 = getelementptr inbounds nuw i8, ptr %0, i64 80
  %9 = load ptr, ptr %8, align 8
  %10 = icmp eq ptr %7, %9
  tail call void @llvm.assume(i1 %10)
  %11 = getelementptr inbounds nuw i8, ptr %3, i64 36
  %12 = load i32, ptr %11, align 4
  %13 = icmp eq i32 %12, 67
  %spec.select.i.i = select i1 %13, ptr %0, ptr null
  ret ptr %spec.select.i.i
}